; Function Attrs: nounwind uwtable
define hidden ptr @mi_heap_reallocf(ptr noundef %0, ptr noundef %1, i64 noundef %2) local_unnamed_addr #3 {
  %4 = tail call ptr @_mi_heap_realloc_zero(ptr noundef %0, ptr noundef %1, i64 noundef %2, i1 noundef zeroext false) #20
  %5 = icmp eq ptr %4, null
  %6 = icmp ne ptr %1, null
  %or.cond = and i1 %6, %5
  br i1 %or.cond, label %7, label %mi_free.exit

7:                                                ; preds = %3
  %8 = ptrtoint ptr %1 to i64
  %9 = add i64 %8, -1
  %10 = and i64 %9, -4194304
  %11 = inttoptr i64 %10 to ptr
  %12 = icmp slt i64 %9, 4194304
  %13 = icmp eq i64 %10, 0
  %14 = or i1 %12, %13
  br i1 %14, label %mi_free.exit, label %15, !prof !17

15:                                               ; preds = %7
  %16 = tail call ptr @llvm.thread.pointer()
  %17 = ptrtoint ptr %16 to i64
  %18 = getelementptr inbounds nuw i8, ptr %11, i64 136
  %19 = load atomic i64, ptr %18 monotonic, align 8
  %20 = icmp eq i64 %19, %17
  %21 = sub i64 %8, %10
  %22 = getelementptr inbounds nuw i8, ptr %11, i64 144
  %23 = load i64, ptr %22, align 16, !tbaa !22
  %24 = lshr i64 %21, %23
  %25 = getelementptr inbounds nuw i8, ptr %11, i64 160
  %26 = getelementptr inbounds nuw [1 x %struct.mi_page_s], ptr %25, i64 0, i64 %24
  br i1 %20, label %27, label %41, !prof !8

27:                                               ; preds = %15
  %28 = getelementptr inbounds nuw i8, ptr %26, i64 6
  %29 = load i8, ptr %28, align 2, !tbaa !29
  %30 = icmp eq i8 %29, 0
  br i1 %30, label %31, label %40, !prof !8

31:                                               ; preds = %27
  %32 = getelementptr inbounds nuw i8, ptr %26, i64 16
  %33 = load ptr, ptr %32, align 16, !tbaa !30
  %34 = ptrtoint ptr %33 to i64
  store i64 %34, ptr %1, align 8, !tbaa !18
  store ptr %1, ptr %32, align 16, !tbaa !30
  %35 = getelementptr inbounds nuw i8, ptr %26, i64 24
  %36 = load i16, ptr %35, align 8, !tbaa !20
  %37 = add i16 %36, -1
  store i16 %37, ptr %35, align 8, !tbaa !20
  %38 = icmp eq i16 %37, 0
  br i1 %38, label %39, label %mi_free.exit, !prof !17

39:                                               ; preds = %31
  tail call void @_mi_page_retire(ptr noundef nonnull %26) #19
  br label %mi_free.exit

40:                                               ; preds = %27
  tail call fastcc void @mi_free_generic_local(ptr noundef nonnull %26, ptr noundef nonnull %1) #20
  br label %mi_free.exit

41:                                               ; preds = %15
  tail call fastcc void @mi_free_generic_mt(ptr noundef nonnull %26, ptr noundef nonnull %11, ptr noundef nonnull %1) #20
  br label %mi_free.exit

mi_free.exit:                                     ; preds = %41, %40, %39, %31, %7, %3
  ret ptr %4
}